target datalayout = "e-m:e-p270:32:32-p271:32:32-p272:64:64-i64:64-i128:128-f80:128-n8:16:32:64-S128"
target triple = "x86_64-unknown-linux-gnu"

%struct.USBPortOps = type { ptr, ptr, ptr, ptr, ptr }
%struct.EHCIState = type { %struct.USBBus, ptr, ptr, %struct.MemoryRegion, ptr, %struct.MemoryRegion, %struct.MemoryRegion, %struct.MemoryRegion, i32, i8, i16, i16, i16, i16, i32, [16 x i8], %union.anon.5, [6 x i32], ptr, ptr, i8, i32, i32, [6 x %struct.USBPort], [6 x ptr], i32, i32, %union.EHCIQueueHead, %union.EHCIQueueHead, i32, i32, %struct.USBPacket, %struct.QEMUSGList, i64, i32, i32, i8, ptr }
%struct.USBBus = type { %struct.BusState, ptr, i32, i32, i32, %union.anon, %union.anon.0, %union.anon.1 }
%struct.BusState = type { %struct.Object, ptr, ptr, ptr, i32, i8, i8, i32, %union.BusChildHead, %struct.BusStateEntry, %struct.ResettableState }
%struct.Object = type { ptr, ptr, ptr, i32, ptr }
%union.BusChildHead = type { %struct.QTailQLink }
%struct.QTailQLink = type { ptr, ptr }
%struct.BusStateEntry = type { ptr, ptr }
%struct.ResettableState = type { i32, i8, i8 }
%union.anon = type { %struct.QTailQLink }
%union.anon.0 = type { %struct.QTailQLink }
%union.anon.1 = type { %struct.QTailQLink }
%struct.MemoryRegion = type { %struct.Object, i8, i8, i8, i8, i8, i8, i8, i8, i8, i8, ptr, ptr, ptr, ptr, ptr, ptr, i32, i128, i64, ptr, i64, i8, i8, i8, i8, i8, ptr, i64, i32, %union.anon.2, %union.anon.3, %union.anon.4, ptr, i32, ptr, ptr, i8 }
%union.anon.2 = type { %struct.QTailQLink }
%union.anon.3 = type { %struct.QTailQLink }
%union.anon.4 = type { %struct.QTailQLink }
%union.anon.5 = type { [17 x i32] }
%struct.USBPort = type { ptr, i32, i32, [16 x i8], ptr, ptr, i32, %union.anon.6 }
%union.anon.6 = type { %struct.QTailQLink }
%union.EHCIQueueHead = type { %struct.QTailQLink }
%struct.USBPacket = type { i32, i64, ptr, i32, %struct.QEMUIOVector, i64, i8, i8, i32, i32, i32, ptr, %union.anon.10, %union.anon.11 }
%struct.QEMUIOVector = type { ptr, i32, %union.anon.7 }
%union.anon.7 = type { %struct.anon.8 }
%struct.anon.8 = type { i32, %struct.iovec }
%struct.iovec = type { ptr, i64 }
%union.anon.10 = type { %struct.QTailQLink }
%union.anon.11 = type { %struct.QTailQLink }
%struct.QEMUSGList = type { ptr, i32, i32, i64, ptr, ptr }
%struct.USBDevice = type { %struct.DeviceState, ptr, ptr, ptr, ptr, i32, ptr, ptr, i32, i32, i8, [32 x i8], i32, i8, i32, [8 x i8], [4096 x i8], i32, i32, i32, i32, %struct.USBEndpoint, [15 x %struct.USBEndpoint], [15 x %struct.USBEndpoint], %struct.anon.13, ptr, ptr, i32, i32, [16 x i32], ptr, [16 x ptr] }
%struct.DeviceState = type { %struct.Object, ptr, ptr, i8, i8, i64, ptr, i32, i8, ptr, %struct.NamedGPIOListHead, %struct.NamedClockListHead, %struct.BusStateHead, i32, i32, i32, %struct.ResettableState, ptr, %struct.MemReentrancyGuard }
%struct.NamedGPIOListHead = type { ptr }
%struct.NamedClockListHead = type { ptr }
%struct.BusStateHead = type { ptr }
%struct.MemReentrancyGuard = type { i8 }
%struct.USBEndpoint = type { i8, i8, i8, i8, i32, i32, i8, i8, ptr, %union.anon.12 }
%union.anon.12 = type { %struct.QTailQLink }
%struct.anon.13 = type { ptr }
%struct.anon = type { i32, i32, i32, i32, i32, i32, i32, [9 x i32], i32 }
%struct.timeval = type { i64, i64 }

@.str.28 = private unnamed_addr constant [5 x i8] c"ehci\00", align 1
@trace_events_enabled_count = external global i32, align 4
@message_with_timestamp = external global i8, align 1
@qemu_loglevel = external global i32, align 4
@.str.92 = private unnamed_addr constant [5 x i8] c"comp\00", align 1
@_TRACE_USB_EHCI_PORT_ATTACH_DSTATE = external global i16, align 2
@.str.93 = private unnamed_addr constant [72 x i8] c"%d@%zu.%06zu:usb_ehci_port_attach attach port #%d, owner %s, device %s\0A\00", align 1
@.str.94 = private unnamed_addr constant [59 x i8] c"usb_ehci_port_attach attach port #%d, owner %s, device %s\0A\00", align 1

; Function Attrs: nounwind sspstrong uwtable
define internal zeroext i1 @qemu_loglevel_mask(i32 noundef %mask) #0 {
entry:
  %mask.addr = alloca i32, align 4
  store i32 %mask, ptr %mask.addr, align 4
  %0 = load i32, ptr @qemu_loglevel, align 4
  %1 = load i32, ptr %mask.addr, align 4
  %and = and i32 %0, %1
  %cmp = icmp ne i32 %and, 0
  ret i1 %cmp
}

; Function Attrs: nounwind sspstrong uwtable
define internal void @_nocheck__trace_usb_ehci_port_attach(i32 noundef %port, ptr noundef %owner, ptr noundef %device) #0 {
entry:
  %port.addr = alloca i32, align 4
  %owner.addr = alloca ptr, align 8
  %device.addr = alloca ptr, align 8
  %_now = alloca %struct.timeval, align 8
  store i32 %port, ptr %port.addr, align 4
  store ptr %owner, ptr %owner.addr, align 8
  store ptr %device, ptr %device.addr, align 8
  %0 = load i32, ptr @trace_events_enabled_count, align 4
  %tobool = icmp ne i32 %0, 0
  %lnot = xor i1 %tobool, true
  %lnot1 = xor i1 %lnot, true
  %lnot.ext = zext i1 %lnot1 to i32
  %conv = sext i32 %lnot.ext to i64
  %tobool2 = icmp ne i64 %conv, 0
  br i1 %tobool2, label %land.lhs.true, label %if.end11

land.lhs.true:                                    ; preds = %entry
  %1 = load i16, ptr @_TRACE_USB_EHCI_PORT_ATTACH_DSTATE, align 2
  %conv3 = zext i16 %1 to i32
  %tobool4 = icmp ne i32 %conv3, 0
  br i1 %tobool4, label %land.lhs.true5, label %if.end11

land.lhs.true5:                                   ; preds = %land.lhs.true
  %call = call zeroext i1 @qemu_loglevel_mask(i32 noundef 32768)
  br i1 %call, label %if.then, label %if.end11

if.then:                                          ; preds = %land.lhs.true5
  %2 = load i8, ptr @message_with_timestamp, align 1
  %tobool7 = trunc i8 %2 to i1
  br i1 %tobool7, label %if.then8, label %if.else

if.then8:                                         ; preds = %if.then
  %call9 = call i32 @gettimeofday(ptr noundef %_now, ptr noundef null) #10
  %call10 = call i32 @qemu_get_thread_id()
  %tv_sec = getelementptr inbounds %struct.timeval, ptr %_now, i32 0, i32 0
  %3 = load i64, ptr %tv_sec, align 8
  %tv_usec = getelementptr inbounds %struct.timeval, ptr %_now, i32 0, i32 1
  %4 = load i64, ptr %tv_usec, align 8
  %5 = load i32, ptr %port.addr, align 4
  %6 = load ptr, ptr %owner.addr, align 8
  %7 = load ptr, ptr %device.addr, align 8
  call void (ptr, ...) @qemu_log(ptr noundef @.str.93, i32 noundef %call10, i64 noundef %3, i64 noundef %4, i32 noundef %5, ptr noundef %6, ptr noundef %7)
  br label %if.end

if.else:                                          ; preds = %if.then
  %8 = load i32, ptr %port.addr, align 4
  %9 = load ptr, ptr %owner.addr, align 8
  %10 = load ptr, ptr %device.addr, align 8
  call void (ptr, ...) @qemu_log(ptr noundef @.str.94, i32 noundef %8, ptr noundef %9, ptr noundef %10)
  br label %if.end

if.end:                                           ; preds = %if.else, %if.then8
  br label %if.end11

if.end11:                                         ; preds = %if.end, %land.lhs.true5, %land.lhs.true, %entry
  ret void
}

; Function Attrs: nounwind sspstrong uwtable
define internal void @ehci_raise_irq(ptr noundef %s, i32 noundef %intr) #0 {
entry:
  %s.addr = alloca ptr, align 8
  %intr.addr = alloca i32, align 4
  store ptr %s, ptr %s.addr, align 8
  store i32 %intr, ptr %intr.addr, align 4
  %0 = load i32, ptr %intr.addr, align 4
  %and = and i32 %0, 28
  %tobool = icmp ne i32 %and, 0
  br i1 %tobool, label %if.then, label %if.else

if.then:                                          ; preds = %entry
  %1 = load i32, ptr %intr.addr, align 4
  %2 = load ptr, ptr %s.addr, align 8
  %3 = getelementptr inbounds %struct.EHCIState, ptr %2, i32 0, i32 16
  %usbsts = getelementptr inbounds %struct.anon, ptr %3, i32 0, i32 1
  %4 = load i32, ptr %usbsts, align 4
  %or = or i32 %4, %1
  store i32 %or, ptr %usbsts, align 4
  %5 = load ptr, ptr %s.addr, align 8
  call void @ehci_update_irq(ptr noundef %5)
  br label %if.end

if.else:                                          ; preds = %entry
  %6 = load i32, ptr %intr.addr, align 4
  %7 = load ptr, ptr %s.addr, align 8
  %usbsts_pending = getelementptr inbounds %struct.EHCIState, ptr %7, i32 0, i32 25
  %8 = load i32, ptr %usbsts_pending, align 16
  %or1 = or i32 %8, %6
  store i32 %or1, ptr %usbsts_pending, align 16
  br label %if.end

if.end:                                           ; preds = %if.else, %if.then
  ret void
}

; Function Attrs: nounwind sspstrong uwtable
define internal void @trace_usb_ehci_port_attach(i32 noundef %port, ptr noundef %owner, ptr noundef %device) #0 {
entry:
  %port.addr = alloca i32, align 4
  %owner.addr = alloca ptr, align 8
  %device.addr = alloca ptr, align 8
  store i32 %port, ptr %port.addr, align 4
  store ptr %owner, ptr %owner.addr, align 8
  store ptr %device, ptr %device.addr, align 8
  %0 = load i32, ptr %port.addr, align 4
  %1 = load ptr, ptr %owner.addr, align 8
  %2 = load ptr, ptr %device.addr, align 8
  call void @_nocheck__trace_usb_ehci_port_attach(i32 noundef %0, ptr noundef %1, ptr noundef %2)
  ret void
}

; Function Attrs: nounwind sspstrong uwtable
define internal void @ehci_attach(ptr noundef %port) #0 {
entry:
  %port.addr = alloca ptr, align 8
  %s = alloca ptr, align 8
  %portsc = alloca ptr, align 8
  %owner = alloca ptr, align 8
  %companion = alloca ptr, align 8
  store ptr %port, ptr %port.addr, align 8
  %0 = load ptr, ptr %port.addr, align 8
  %opaque = getelementptr inbounds %struct.USBPort, ptr %0, i32 0, i32 5
  %1 = load ptr, ptr %opaque, align 8
  store ptr %1, ptr %s, align 8
  %2 = load ptr, ptr %s, align 8
  %portsc1 = getelementptr inbounds %struct.EHCIState, ptr %2, i32 0, i32 17
  %3 = load ptr, ptr %port.addr, align 8
  %index = getelementptr inbounds %struct.USBPort, ptr %3, i32 0, i32 6
  %4 = load i32, ptr %index, align 8
  %idxprom = sext i32 %4 to i64
  %arrayidx = getelementptr [6 x i32], ptr %portsc1, i64 0, i64 %idxprom
  store ptr %arrayidx, ptr %portsc, align 8
  %5 = load ptr, ptr %portsc, align 8
  %6 = load i32, ptr %5, align 4
  %and = and i32 %6, 8192
  %tobool = icmp ne i32 %and, 0
  %cond = select i1 %tobool, ptr @.str.92, ptr @.str.28
  store ptr %cond, ptr %owner, align 8
  %7 = load ptr, ptr %port.addr, align 8
  %index2 = getelementptr inbounds %struct.USBPort, ptr %7, i32 0, i32 6
  %8 = load i32, ptr %index2, align 8
  %9 = load ptr, ptr %owner, align 8
  %10 = load ptr, ptr %port.addr, align 8
  %dev = getelementptr inbounds %struct.USBPort, ptr %10, i32 0, i32 0
  %11 = load ptr, ptr %dev, align 8
  %product_desc = getelementptr inbounds %struct.USBDevice, ptr %11, i32 0, i32 11
  %arraydecay = getelementptr inbounds [32 x i8], ptr %product_desc, i64 0, i64 0
  call void @trace_usb_ehci_port_attach(i32 noundef %8, ptr noundef %9, ptr noundef %arraydecay)
  %12 = load ptr, ptr %portsc, align 8
  %13 = load i32, ptr %12, align 4
  %and3 = and i32 %13, 8192
  %tobool4 = icmp ne i32 %and3, 0
  br i1 %tobool4, label %if.then, label %if.end

if.then:                                          ; preds = %entry
  %14 = load ptr, ptr %s, align 8
  %companion_ports = getelementptr inbounds %struct.EHCIState, ptr %14, i32 0, i32 24
  %15 = load ptr, ptr %port.addr, align 8
  %index5 = getelementptr inbounds %struct.USBPort, ptr %15, i32 0, i32 6
  %16 = load i32, ptr %index5, align 8
  %idxprom6 = sext i32 %16 to i64
  %arrayidx7 = getelementptr [6 x ptr], ptr %companion_ports, i64 0, i64 %idxprom6
  %17 = load ptr, ptr %arrayidx7, align 8
  store ptr %17, ptr %companion, align 8
  %18 = load ptr, ptr %port.addr, align 8
  %dev8 = getelementptr inbounds %struct.USBPort, ptr %18, i32 0, i32 0
  %19 = load ptr, ptr %dev8, align 8
  %20 = load ptr, ptr %companion, align 8
  %dev9 = getelementptr inbounds %struct.USBPort, ptr %20, i32 0, i32 0
  store ptr %19, ptr %dev9, align 8
  %21 = load ptr, ptr %companion, align 8
  %ops = getelementptr inbounds %struct.USBPort, ptr %21, i32 0, i32 4
  %22 = load ptr, ptr %ops, align 8
  %attach = getelementptr inbounds %struct.USBPortOps, ptr %22, i32 0, i32 0
  %23 = load ptr, ptr %attach, align 8
  %24 = load ptr, ptr %companion, align 8
  call void %23(ptr noundef %24)
  br label %return

if.end:                                           ; preds = %entry
  %25 = load ptr, ptr %portsc, align 8
  %26 = load i32, ptr %25, align 4
  %or = or i32 %26, 1
  store i32 %or, ptr %25, align 4
  %27 = load ptr, ptr %portsc, align 8
  %28 = load i32, ptr %27, align 4
  %or10 = or i32 %28, 2
  store i32 %or10, ptr %27, align 4
  %29 = load ptr, ptr %s, align 8
  call void @ehci_raise_irq(ptr noundef %29, i32 noundef 4)
  br label %return

return:                                           ; preds = %if.end, %if.then
  ret void
}