; Function Attrs: nounwind sspstrong uwtable
define internal void @ehci_attach(ptr noundef readonly captures(none) %port) #0 {
entry:
  %_now.i.i = alloca %struct.timeval, align 8
  %opaque = getelementptr inbounds nuw i8, ptr %port, i64 40
  %0 = load ptr, ptr %opaque, align 8
  %portsc1 = getelementptr inbounds nuw i8, ptr %0, i64 1416
  %index = getelementptr inbounds nuw i8, ptr %port, i64 48
  %1 = load i32, ptr %index, align 8
  %idxprom = sext i32 %1 to i64
  %arrayidx = getelementptr [6 x i32], ptr %portsc1, i64 0, i64 %idxprom
  %2 = load i32, ptr %arrayidx, align 4
  %and = and i32 %2, 8192
  %tobool.not = icmp eq i32 %and, 0
  %cond = select i1 %tobool.not, ptr @.str.28, ptr @.str.92
  %3 = load ptr, ptr %port, align 8
  %product_desc = getelementptr inbounds nuw i8, ptr %3, i64 225
  call void @llvm.lifetime.start.p0(i64 16, ptr nonnull %_now.i.i)
  %4 = load i32, ptr @trace_events_enabled_count, align 4
  %tobool.i.i = icmp ne i32 %4, 0
  %5 = load i16, ptr @_TRACE_USB_EHCI_PORT_ATTACH_DSTATE, align 2
  %tobool4.i.i = icmp ne i16 %5, 0
  %or.cond.i.i = select i1 %tobool.i.i, i1 %tobool4.i.i, i1 false
  br i1 %or.cond.i.i, label %land.lhs.true5.i.i, label %trace_usb_ehci_port_attach.exit

land.lhs.true5.i.i:                               ; preds = %entry
  %6 = load i32, ptr @qemu_loglevel, align 4
  %and.i.i.i = and i32 %6, 32768
  %cmp.i.not.i.i = icmp eq i32 %and.i.i.i, 0
  br i1 %cmp.i.not.i.i, label %trace_usb_ehci_port_attach.exit, label %if.then.i.i

if.then.i.i:                                      ; preds = %land.lhs.true5.i.i
  %7 = load i8, ptr @message_with_timestamp, align 1
  %tobool7.i.i = trunc i8 %7 to i1
  br i1 %tobool7.i.i, label %if.then8.i.i, label %if.else.i.i

if.then8.i.i:                                     ; preds = %if.then.i.i
  %call9.i.i = call i32 @gettimeofday(ptr noundef nonnull %_now.i.i, ptr noundef null) #17
  %call10.i.i = tail call i32 @qemu_get_thread_id() #17
  %8 = load i64, ptr %_now.i.i, align 8
  %tv_usec.i.i = getelementptr inbounds nuw i8, ptr %_now.i.i, i64 8
  %9 = load i64, ptr %tv_usec.i.i, align 8
  tail call void (ptr, ...) @qemu_log(ptr noundef nonnull @.str.93, i32 noundef %call10.i.i, i64 noundef %8, i64 noundef %9, i32 noundef %1, ptr noundef nonnull %cond, ptr noundef nonnull %product_desc) #17
  br label %trace_usb_ehci_port_attach.exit

if.else.i.i:                                      ; preds = %if.then.i.i
  tail call void (ptr, ...) @qemu_log(ptr noundef nonnull @.str.94, i32 noundef %1, ptr noundef nonnull %cond, ptr noundef nonnull %product_desc) #17
  br label %trace_usb_ehci_port_attach.exit

trace_usb_ehci_port_attach.exit:                  ; preds = %entry, %land.lhs.true5.i.i, %if.then8.i.i, %if.else.i.i
  call void @llvm.lifetime.end.p0(i64 16, ptr nonnull %_now.i.i)
  %10 = load i32, ptr %arrayidx, align 4
  %and3 = and i32 %10, 8192
  %tobool4.not = icmp eq i32 %and3, 0
  br i1 %tobool4.not, label %if.end, label %if.then

if.then:                                          ; preds = %trace_usb_ehci_port_attach.exit
  %companion_ports = getelementptr inbounds nuw i8, ptr %0, i64 1904
  %11 = load i32, ptr %index, align 8
  %idxprom6 = sext i32 %11 to i64
  %arrayidx7 = getelementptr [6 x ptr], ptr %companion_ports, i64 0, i64 %idxprom6
  %12 = load ptr, ptr %arrayidx7, align 8
  %13 = load ptr, ptr %port, align 8
  store ptr %13, ptr %12, align 8
  %ops = getelementptr inbounds nuw i8, ptr %12, i64 32
  %14 = load ptr, ptr %ops, align 8
  %15 = load ptr, ptr %14, align 8
  tail call void %15(ptr noundef nonnull %12) #17
  br label %return

if.end:                                           ; preds = %trace_usb_ehci_port_attach.exit
  %or10 = or i32 %10, 3
  store i32 %or10, ptr %arrayidx, align 4
  %usbsts.i = getelementptr inbounds nuw i8, ptr %0, i64 1352
  %16 = load i32, ptr %usbsts.i, align 4
  %or.i = or i32 %16, 4
  store i32 %or.i, ptr %usbsts.i, align 4
  tail call fastcc void @ehci_update_irq(ptr noundef nonnull %0)
  br label %return

return:                                           ; preds = %if.end, %if.then
  ret void
}